target datalayout = "e-m:e-p270:32:32-p271:32:32-p272:64:64-i64:64-i128:128-f80:128-n8:16:32:64-S128"
target triple = "x86_64-pc-linux-gnu"

@.str.39 = private unnamed_addr constant [1 x i8] zeroinitializer, align 1

; Function Attrs: nounwind uwtable
define internal i64 @posrelat(i64 noundef %0, i64 noundef %1) #0 {
  %3 = alloca i64, align 8
  %4 = alloca i64, align 8
  store i64 %0, ptr %3, align 8, !tbaa !11
  store i64 %1, ptr %4, align 8, !tbaa !11
  %5 = load i64, ptr %3, align 8, !tbaa !11
  %6 = icmp slt i64 %5, 0
  br i1 %6, label %7, label %12

7:                                                ; preds = %2
  %8 = load i64, ptr %4, align 8, !tbaa !11
  %9 = add nsw i64 %8, 1
  %10 = load i64, ptr %3, align 8, !tbaa !11
  %11 = add nsw i64 %10, %9
  store i64 %11, ptr %3, align 8, !tbaa !11
  br label %12

12:                                               ; preds = %7, %2
  %13 = load i64, ptr %3, align 8, !tbaa !11
  %14 = icmp sge i64 %13, 0
  br i1 %14, label %15, label %17

15:                                               ; preds = %12
  %16 = load i64, ptr %3, align 8, !tbaa !11
  br label %18

17:                                               ; preds = %12
  br label %18

18:                                               ; preds = %17, %15
  %19 = phi i64 [ %16, %15 ], [ 0, %17 ]
  ret i64 %19
}

; Function Attrs: nounwind uwtable
define internal i32 @str_sub(ptr noundef %0) #0 {
  %2 = alloca ptr, align 8
  %3 = alloca i64, align 8
  %4 = alloca ptr, align 8
  %5 = alloca i64, align 8
  %6 = alloca i64, align 8
  store ptr %0, ptr %2, align 8, !tbaa !4
  call void @llvm.lifetime.start.p0(i64 8, ptr %3) #8
  call void @llvm.lifetime.start.p0(i64 8, ptr %4) #8
  %7 = load ptr, ptr %2, align 8, !tbaa !4
  %8 = call ptr @luaL_checklstring(ptr noundef %7, i32 noundef 1, ptr noundef %3)
  store ptr %8, ptr %4, align 8, !tbaa !9
  call void @llvm.lifetime.start.p0(i64 8, ptr %5) #8
  %9 = load ptr, ptr %2, align 8, !tbaa !4
  %10 = call i64 @luaL_checkinteger(ptr noundef %9, i32 noundef 2)
  %11 = load i64, ptr %3, align 8, !tbaa !11
  %12 = call i64 @posrelat(i64 noundef %10, i64 noundef %11)
  store i64 %12, ptr %5, align 8, !tbaa !11
  call void @llvm.lifetime.start.p0(i64 8, ptr %6) #8
  %13 = load ptr, ptr %2, align 8, !tbaa !4
  %14 = call i64 @luaL_optinteger(ptr noundef %13, i32 noundef 3, i64 noundef -1)
  %15 = load i64, ptr %3, align 8, !tbaa !11
  %16 = call i64 @posrelat(i64 noundef %14, i64 noundef %15)
  store i64 %16, ptr %6, align 8, !tbaa !11
  %17 = load i64, ptr %5, align 8, !tbaa !11
  %18 = icmp slt i64 %17, 1
  br i1 %18, label %19, label %20

19:                                               ; preds = %1
  store i64 1, ptr %5, align 8, !tbaa !11
  br label %20

20:                                               ; preds = %19, %1
  %21 = load i64, ptr %6, align 8, !tbaa !11
  %22 = load i64, ptr %3, align 8, !tbaa !11
  %23 = icmp sgt i64 %21, %22
  br i1 %23, label %24, label %26

24:                                               ; preds = %20
  %25 = load i64, ptr %3, align 8, !tbaa !11
  store i64 %25, ptr %6, align 8, !tbaa !11
  br label %26

26:                                               ; preds = %24, %20
  %27 = load i64, ptr %5, align 8, !tbaa !11
  %28 = load i64, ptr %6, align 8, !tbaa !11
  %29 = icmp sle i64 %27, %28
  br i1 %29, label %30, label %40

30:                                               ; preds = %26
  %31 = load ptr, ptr %2, align 8, !tbaa !4
  %32 = load ptr, ptr %4, align 8, !tbaa !9
  %33 = load i64, ptr %5, align 8, !tbaa !11
  %34 = getelementptr inbounds i8, ptr %32, i64 %33
  %35 = getelementptr inbounds i8, ptr %34, i64 -1
  %36 = load i64, ptr %6, align 8, !tbaa !11
  %37 = load i64, ptr %5, align 8, !tbaa !11
  %38 = sub nsw i64 %36, %37
  %39 = add nsw i64 %38, 1
  call void @lua_pushlstring(ptr noundef %31, ptr noundef %35, i64 noundef %39)
  br label %42

40:                                               ; preds = %26
  %41 = load ptr, ptr %2, align 8, !tbaa !4
  call void @lua_pushlstring(ptr noundef %41, ptr noundef @.str.39, i64 noundef 0)
  br label %42

42:                                               ; preds = %40, %30
  call void @llvm.lifetime.end.p0(i64 8, ptr %6) #8
  call void @llvm.lifetime.end.p0(i64 8, ptr %5) #8
  call void @llvm.lifetime.end.p0(i64 8, ptr %4) #8
  call void @llvm.lifetime.end.p0(i64 8, ptr %3) #8
  ret i32 1
}