; Function Attrs: nounwind uwtable
define internal noundef i32 @str_sub(ptr noundef %0) #0 {
  %2 = alloca i64, align 8
  call void @llvm.lifetime.start.p0(i64 8, ptr nonnull %2) #10
  %3 = call ptr @luaL_checklstring(ptr noundef %0, i32 noundef 1, ptr noundef nonnull %2) #10
  %4 = call i64 @luaL_checkinteger(ptr noundef %0, i32 noundef 2) #10
  %5 = load i64, ptr %2, align 8, !tbaa !4
  %6 = icmp slt i64 %4, 0
  %7 = add nsw i64 %5, 1
  %8 = select i1 %6, i64 %7, i64 0
  %.0.i = add nsw i64 %8, %4
  %9 = call i64 @luaL_optinteger(ptr noundef %0, i32 noundef 3, i64 noundef -1) #10
  %10 = load i64, ptr %2, align 8, !tbaa !4
  %11 = icmp slt i64 %9, 0
  %12 = add nsw i64 %10, 1
  %13 = select i1 %11, i64 %12, i64 0
  %.0.i14 = add nsw i64 %13, %9
  %14 = call range(i64 0, -9223372036854775808) i64 @llvm.smax.i64(i64 %.0.i14, i64 0)
  %15 = call i64 @llvm.smax.i64(i64 %.0.i, i64 1)
  %spec.select = call i64 @llvm.smin.i64(i64 %14, i64 %10)
  %.not = icmp sgt i64 %15, %spec.select
  br i1 %.not, label %20, label %16

16:                                               ; preds = %1
  %17 = getelementptr inbounds nuw i8, ptr %3, i64 %15
  %18 = getelementptr inbounds i8, ptr %17, i64 -1
  %reass.sub = sub nsw i64 %spec.select, %15
  %19 = add nsw i64 %reass.sub, 1
  call void @lua_pushlstring(ptr noundef %0, ptr noundef nonnull %18, i64 noundef %19) #10
  br label %21

20:                                               ; preds = %1
  call void @lua_pushlstring(ptr noundef %0, ptr noundef nonnull @.str.39, i64 noundef 0) #10
  br label %21

21:                                               ; preds = %20, %16
  call void @llvm.lifetime.end.p0(i64 8, ptr nonnull %2) #10
  ret i32 1
}